; Function Attrs: mustprogress uwtable
define void @_ZN12b2MouseJointC2EPK15b2MouseJointDef(ptr noundef nonnull align 8 dereferenceable(228) %this, ptr noundef %def) unnamed_addr #0 align 2 personality ptr @__gxx_personality_v0 {
invoke.cont4:
  tail call void @_ZN7b2JointC2EPK10b2JointDef(ptr noundef nonnull align 8 dereferenceable(128) %this, ptr noundef %def)
  store ptr getelementptr inbounds ({ [14 x ptr] }, ptr @_ZTV12b2MouseJoint, i64 0, i32 0, i64 2), ptr %this, align 8
  %target = getelementptr inbounds i8, ptr %def, i64 36
  %m_targetA2 = getelementptr inbounds i8, ptr %this, i64 136
  %0 = load i64, ptr %target, align 4
  store i64 %0, ptr %m_targetA2, align 8
  %m_bodyB = getelementptr inbounds i8, ptr %this, i64 104
  %1 = load ptr, ptr %m_bodyB, align 8
  %m_xf.i = getelementptr inbounds i8, ptr %1, i64 12
  %2 = trunc i64 %0 to i32
  %3 = bitcast i32 %2 to float
  %4 = load float, ptr %m_xf.i, align 4
  %sub.i = fsub float %3, %4
  %5 = lshr i64 %0, 32
  %6 = trunc i64 %5 to i32
  %7 = bitcast i32 %6 to float
  %y3.i = getelementptr inbounds i8, ptr %1, i64 16
  %8 = load float, ptr %y3.i, align 4
  %sub4.i = fsub float %7, %8
  %q.i = getelementptr inbounds i8, ptr %1, i64 20
  %9 = load <2 x float>, ptr %q.i, align 4
  %10 = extractelement <2 x float> %9, i64 0
  %fneg.i = fneg float %10
  %11 = insertelement <2 x float> poison, float %sub4.i, i64 0
  %12 = shufflevector <2 x float> %11, <2 x float> poison, <2 x i32> zeroinitializer
  %13 = fmul <2 x float> %12, %9
  %14 = shufflevector <2 x float> %9, <2 x float> poison, <2 x i32> <i32 1, i32 poison>
  %15 = insertelement <2 x float> %14, float %fneg.i, i64 1
  %16 = insertelement <2 x float> poison, float %sub.i, i64 0
  %17 = shufflevector <2 x float> %16, <2 x float> poison, <2 x i32> zeroinitializer
  %18 = tail call <2 x float> @llvm.fmuladd.v2f32(<2 x float> %15, <2 x float> %17, <2 x float> %13)
  %m_localAnchorB6 = getelementptr inbounds i8, ptr %this, i64 128
  store <2 x float> %18, ptr %m_localAnchorB6, align 8
  %maxForce = getelementptr inbounds i8, ptr %def, i64 44
  %19 = load float, ptr %maxForce, align 4
  %m_maxForce = getelementptr inbounds i8, ptr %this, i64 164
  store float %19, ptr %m_maxForce, align 4
  %stiffness = getelementptr inbounds i8, ptr %def, i64 48
  %20 = load float, ptr %stiffness, align 8
  %m_stiffness = getelementptr inbounds i8, ptr %this, i64 144
  store float %20, ptr %m_stiffness, align 8
  %damping = getelementptr inbounds i8, ptr %def, i64 52
  %21 = load float, ptr %damping, align 4
  %m_damping = getelementptr inbounds i8, ptr %this, i64 148
  store float %21, ptr %m_damping, align 4
  %y.i5 = getelementptr inbounds i8, ptr %this, i64 160
  store float 0.000000e+00, ptr %y.i5, align 8
  %m_beta = getelementptr inbounds i8, ptr %this, i64 152
  store <2 x float> zeroinitializer, ptr %m_beta, align 8
  %m_gamma = getelementptr inbounds i8, ptr %this, i64 168
  store float 0.000000e+00, ptr %m_gamma, align 8
  ret void
}